target datalayout = "e-m:e-p270:32:32-p271:32:32-p272:64:64-i64:64-i128:128-f80:128-n8:16:32:64-S128"
target triple = "x86_64-pc-linux-gnu"

%"class.gmx::ProcessFrameConversion" = type { %"class.gmx::IFrameConverter", %"class.std::vector", %"class.std::unique_ptr", %"class.std::vector.2", %"class.std::vector.2", %"class.std::vector.2", i64 }
%"class.gmx::IFrameConverter" = type { ptr }
%"class.std::vector" = type { %"struct.std::_Vector_base" }
%"struct.std::_Vector_base" = type { %"struct.std::_Vector_base<gmx::ProcessFrameConversion::FrameModule, std::allocator<gmx::ProcessFrameConversion::FrameModule>>::_Vector_impl" }
%"struct.std::_Vector_base<gmx::ProcessFrameConversion::FrameModule, std::allocator<gmx::ProcessFrameConversion::FrameModule>>::_Vector_impl" = type { %"struct.std::_Vector_base<gmx::ProcessFrameConversion::FrameModule, std::allocator<gmx::ProcessFrameConversion::FrameModule>>::_Vector_impl_data" }
%"struct.std::_Vector_base<gmx::ProcessFrameConversion::FrameModule, std::allocator<gmx::ProcessFrameConversion::FrameModule>>::_Vector_impl_data" = type { ptr, ptr, ptr }
%"class.std::unique_ptr" = type { %"struct.std::__uniq_ptr_data" }
%"struct.std::__uniq_ptr_data" = type { %"class.std::__uniq_ptr_impl" }
%"class.std::__uniq_ptr_impl" = type { %"class.std::tuple" }
%"class.std::tuple" = type { %"struct.std::_Tuple_impl" }
%"struct.std::_Tuple_impl" = type { %"struct.std::_Head_base.1" }
%"struct.std::_Head_base.1" = type { ptr }
%"class.std::vector.2" = type { %"struct.std::_Vector_base.3" }
%"struct.std::_Vector_base.3" = type { %"struct.std::_Vector_base<gmx::BasicVector<float>, std::allocator<gmx::BasicVector<float>>>::_Vector_impl" }
%"struct.std::_Vector_base<gmx::BasicVector<float>, std::allocator<gmx::BasicVector<float>>>::_Vector_impl" = type { %"struct.std::_Vector_base<gmx::BasicVector<float>, std::allocator<gmx::BasicVector<float>>>::_Vector_impl_data" }
%"struct.std::_Vector_base<gmx::BasicVector<float>, std::allocator<gmx::BasicVector<float>>>::_Vector_impl_data" = type { ptr, ptr, ptr }

; Function Attrs: mustprogress nounwind uwtable
define linkonce_odr noundef i64 @_ZN3gmx11convertFlagENS_19FrameConverterFlagsE(i64 noundef %0) #0 comdat {
  %2 = alloca i64, align 8
  store i64 %0, ptr %2, align 8
  %3 = load i64, ptr %2, align 8
  ret i64 %3
}

; Function Attrs: mustprogress nounwind uwtable
define void @_ZN3gmx22ProcessFrameConversion20addAndCheckGuaranteeEm(ptr noundef nonnull align 8 dereferenceable(120) %0, i64 noundef %1) #0 align 2 {
  %3 = alloca ptr, align 8
  %4 = alloca i64, align 8
  store ptr %0, ptr %3, align 8
  store i64 %1, ptr %4, align 8
  %5 = load ptr, ptr %3, align 8
  %6 = load i64, ptr %4, align 8
  %7 = getelementptr inbounds %"class.gmx::ProcessFrameConversion", ptr %5, i32 0, i32 6
  %8 = load i64, ptr %7, align 8
  %9 = or i64 %8, %6
  store i64 %9, ptr %7, align 8
  %10 = load i64, ptr %4, align 8
  %11 = call noundef i64 @_ZN3gmx11convertFlagENS_19FrameConverterFlagsE(i64 noundef 32768)
  %12 = and i64 %10, %11
  %13 = icmp ne i64 %12, 0
  br i1 %13, label %29, label %14

14:                                               ; preds = %2
  %15 = load i64, ptr %4, align 8
  %16 = call noundef i64 @_ZN3gmx11convertFlagENS_19FrameConverterFlagsE(i64 noundef 256)
  %17 = and i64 %15, %16
  %18 = icmp ne i64 %17, 0
  br i1 %18, label %29, label %19

19:                                               ; preds = %14
  %20 = load i64, ptr %4, align 8
  %21 = call noundef i64 @_ZN3gmx11convertFlagENS_19FrameConverterFlagsE(i64 noundef 64)
  %22 = and i64 %20, %21
  %23 = icmp ne i64 %22, 0
  br i1 %23, label %29, label %24

24:                                               ; preds = %19
  %25 = load i64, ptr %4, align 8
  %26 = call noundef i64 @_ZN3gmx11convertFlagENS_19FrameConverterFlagsE(i64 noundef 128)
  %27 = and i64 %25, %26
  %28 = icmp ne i64 %27, 0
  br i1 %28, label %29, label %50

29:                                               ; preds = %24, %19, %14, %2
  %30 = call noundef i64 @_ZN3gmx11convertFlagENS_19FrameConverterFlagsE(i64 noundef 32)
  %31 = xor i64 %30, -1
  %32 = getelementptr inbounds %"class.gmx::ProcessFrameConversion", ptr %5, i32 0, i32 6
  %33 = load i64, ptr %32, align 8
  %34 = and i64 %33, %31
  store i64 %34, ptr %32, align 8
  %35 = call noundef i64 @_ZN3gmx11convertFlagENS_19FrameConverterFlagsE(i64 noundef 8)
  %36 = xor i64 %35, -1
  %37 = getelementptr inbounds %"class.gmx::ProcessFrameConversion", ptr %5, i32 0, i32 6
  %38 = load i64, ptr %37, align 8
  %39 = and i64 %38, %36
  store i64 %39, ptr %37, align 8
  %40 = call noundef i64 @_ZN3gmx11convertFlagENS_19FrameConverterFlagsE(i64 noundef 16)
  %41 = xor i64 %40, -1
  %42 = getelementptr inbounds %"class.gmx::ProcessFrameConversion", ptr %5, i32 0, i32 6
  %43 = load i64, ptr %42, align 8
  %44 = and i64 %43, %41
  store i64 %44, ptr %42, align 8
  %45 = call noundef i64 @_ZN3gmx11convertFlagENS_19FrameConverterFlagsE(i64 noundef 512)
  %46 = xor i64 %45, -1
  %47 = getelementptr inbounds %"class.gmx::ProcessFrameConversion", ptr %5, i32 0, i32 6
  %48 = load i64, ptr %47, align 8
  %49 = and i64 %48, %46
  store i64 %49, ptr %47, align 8
  br label %50

50:                                               ; preds = %29, %24
  ret void
}