; Function Attrs: mustprogress nofree norecurse nosync nounwind willreturn memory(argmem: readwrite) uwtable
define void @_ZN3gmx22ProcessFrameConversion20addAndCheckGuaranteeEm(ptr nocapture noundef nonnull align 8 dereferenceable(120) %0, i64 noundef %1) local_unnamed_addr #5 align 2 {
  %3 = getelementptr inbounds i8, ptr %0, i64 112
  %4 = load i64, ptr %3, align 8
  %5 = or i64 %4, %1
  %6 = and i64 %1, 33216
  %or.cond9 = icmp eq i64 %6, 0
  %7 = and i64 %5, -569
  %spec.select = select i1 %or.cond9, i64 %5, i64 %7
  store i64 %spec.select, ptr %3, align 8
  ret void
}